target datalayout = "e-m:e-p270:32:32-p271:32:32-p272:64:64-i64:64-i128:128-f80:128-n8:16:32:64-S128"
target triple = "x86_64-pc-linux-gnu"

%"class.clang::SourceLocation" = type { i32 }
%"class.clang::CXXScopeSpec" = type { %"class.clang::SourceRange", %"class.clang::NestedNameSpecifierLocBuilder", %"class.llvm::ArrayRef" }
%"class.clang::SourceRange" = type { %"class.clang::SourceLocation", %"class.clang::SourceLocation" }
%"class.clang::NestedNameSpecifierLocBuilder" = type { ptr, ptr, i32, i32 }
%"class.llvm::ArrayRef" = type { ptr, i64 }
%"class.clang::ParsedAttributesView" = type { %"class.clang::SourceRange", %"class.llvm::SmallVector.342" }
%"class.llvm::SmallVector.342" = type { %"class.llvm::SmallVectorImpl.343", %"struct.llvm::SmallVectorStorage.346" }
%"class.llvm::SmallVectorImpl.343" = type { %"class.llvm::SmallVectorTemplateBase.344" }
%"class.llvm::SmallVectorTemplateBase.344" = type { %"class.llvm::SmallVectorTemplateCommon.345" }
%"class.llvm::SmallVectorTemplateCommon.345" = type { %"class.llvm::SmallVectorBase" }
%"class.llvm::SmallVectorBase" = type { ptr, i32, i32 }
%"struct.llvm::SmallVectorStorage.346" = type { [48 x i8] }
%"class.llvm::function_ref" = type { ptr, i64 }
%"struct.clang::UnionOpaquePtr" = type { ptr }
%"class.clang::ParsedAttributes" = type { %"class.clang::ParsedAttributesView", %"class.clang::AttributePool" }
%"class.clang::AttributePool" = type { ptr, %"class.llvm::SmallVector.342" }
%"class.clang::DeclSpec" = type { i64, %union.anon.349, ptr, %"class.clang::ExplicitSpecifier", %"class.clang::ParsedAttributes", %"class.clang::CXXScopeSpec", %"class.clang::SourceRange", %"class.clang::SourceLocation", %"class.clang::SourceLocation", %"class.clang::SourceRange", %"class.clang::SourceLocation", %"class.clang::SourceLocation", %"class.clang::SourceLocation", %"class.clang::SourceLocation", %"class.clang::SourceLocation", %"class.clang::SourceLocation", %"class.clang::SourceLocation", %"class.clang::SourceRange", %"class.clang::SourceLocation", %"class.clang::SourceLocation", %"class.clang::SourceLocation", %"class.clang::SourceLocation", %"class.clang::SourceLocation", %"class.clang::SourceLocation", %"class.clang::SourceLocation", %"class.clang::SourceLocation", %"class.clang::SourceLocation", %"class.clang::SourceLocation", %"class.clang::SourceLocation", %"class.clang::SourceLocation", %"class.clang::SourceLocation", %"class.clang::SourceLocation", %"class.clang::SourceLocation", %"struct.clang::WrittenBuiltinSpecs", ptr }
%union.anon.349 = type { %"struct.clang::UnionOpaquePtr" }
%"class.clang::ExplicitSpecifier" = type { %"class.llvm::PointerIntPair.350" }
%"class.llvm::PointerIntPair.350" = type { %"struct.llvm::detail::PunnedPointer.351" }
%"struct.llvm::detail::PunnedPointer.351" = type { [8 x i8] }
%"struct.clang::WrittenBuiltinSpecs" = type { i16, [2 x i8] }
%"class.llvm::StringRef" = type { ptr, i64 }

@.str = private unnamed_addr constant [6 x i8] c"const\00", align 1
@.str.1 = private unnamed_addr constant [9 x i8] c"volatile\00", align 1
@.str.2 = private unnamed_addr constant [9 x i8] c"restrict\00", align 1
@.str.3 = private unnamed_addr constant [10 x i8] c"unaligned\00", align 1

; Function Attrs: mustprogress nounwind uwtable
define linkonce_odr hidden noundef i64 @_ZNSt11char_traitsIcE6lengthEPKc(ptr noundef %0) #0 comdat align 2 {
  %2 = alloca ptr, align 8
  store ptr %0, ptr %2, align 8
  %3 = load ptr, ptr %2, align 8
  %4 = call i64 @strlen(ptr noundef %3) #9
  ret i64 %4
}

; Function Attrs: mustprogress nounwind uwtable
define linkonce_odr hidden void @_ZNK4llvm12function_refIFvN5clang8DeclSpec2TQENS_9StringRefENS1_14SourceLocationEEEclES3_S4_S5_(ptr noundef nonnull align 8 dereferenceable(16) %0, i32 noundef %1, ptr %2, i64 %3, i32 %4) #0 comdat align 2 {
  %6 = alloca %"class.llvm::StringRef", align 8
  %7 = alloca %"class.clang::SourceLocation", align 4
  %8 = alloca ptr, align 8
  %9 = alloca i32, align 4
  %10 = alloca %"class.llvm::StringRef", align 8
  %11 = alloca %"class.clang::SourceLocation", align 4
  %12 = getelementptr inbounds nuw { ptr, i64 }, ptr %6, i32 0, i32 0
  store ptr %2, ptr %12, align 8
  %13 = getelementptr inbounds nuw { ptr, i64 }, ptr %6, i32 0, i32 1
  store i64 %3, ptr %13, align 8
  %14 = getelementptr inbounds nuw %"class.clang::SourceLocation", ptr %7, i32 0, i32 0
  store i32 %4, ptr %14, align 4
  store ptr %0, ptr %8, align 8
  store i32 %1, ptr %9, align 4
  %15 = load ptr, ptr %8, align 8
  %16 = getelementptr inbounds nuw %"class.llvm::function_ref", ptr %15, i32 0, i32 0
  %17 = load ptr, ptr %16, align 8
  %18 = getelementptr inbounds nuw %"class.llvm::function_ref", ptr %15, i32 0, i32 1
  %19 = load i64, ptr %18, align 8
  %20 = load i32, ptr %9, align 4
  call void @llvm.memcpy.p0.p0.i64(ptr align 8 %10, ptr align 8 %6, i64 16, i1 false)
  call void @llvm.memcpy.p0.p0.i64(ptr align 4 %11, ptr align 4 %7, i64 4, i1 false)
  %21 = getelementptr inbounds nuw { ptr, i64 }, ptr %10, i32 0, i32 0
  %22 = load ptr, ptr %21, align 8
  %23 = getelementptr inbounds nuw { ptr, i64 }, ptr %10, i32 0, i32 1
  %24 = load i64, ptr %23, align 8
  %25 = getelementptr inbounds nuw %"class.clang::SourceLocation", ptr %11, i32 0, i32 0
  %26 = load i32, ptr %25, align 4
  call void %17(i64 noundef %19, i32 noundef %20, ptr %22, i64 %24, i32 %26)
  ret void
}

; Function Attrs: mustprogress nounwind uwtable
define linkonce_odr hidden void @_ZN4llvm9StringRefC2EPKc(ptr noundef nonnull align 8 dereferenceable(16) %0, ptr noundef %1) unnamed_addr #0 comdat align 2 {
  %3 = alloca ptr, align 8
  %4 = alloca ptr, align 8
  store ptr %0, ptr %3, align 8
  store ptr %1, ptr %4, align 8
  %5 = load ptr, ptr %3, align 8
  %6 = getelementptr inbounds nuw %"class.llvm::StringRef", ptr %5, i32 0, i32 0
  %7 = load ptr, ptr %4, align 8
  store ptr %7, ptr %6, align 8
  %8 = getelementptr inbounds nuw %"class.llvm::StringRef", ptr %5, i32 0, i32 1
  %9 = load ptr, ptr %4, align 8
  %10 = icmp ne ptr %9, null
  br i1 %10, label %11, label %14

11:                                               ; preds = %2
  %12 = load ptr, ptr %4, align 8
  %13 = call noundef i64 @_ZNSt11char_traitsIcE6lengthEPKc(ptr noundef %12)
  br label %15

14:                                               ; preds = %2
  br label %15

15:                                               ; preds = %14, %11
  %16 = phi i64 [ %13, %11 ], [ 0, %14 ]
  store i64 %16, ptr %8, align 8
  ret void
}

; Function Attrs: mustprogress nounwind uwtable
define dso_local void @_ZN5clang8DeclSpec20forEachCVRUQualifierEN4llvm12function_refIFvNS0_2TQENS1_9StringRefENS_14SourceLocationEEEE(ptr noundef nonnull align 8 dereferenceable(360) %0, ptr %1, i64 %2) #0 align 2 {
  %4 = alloca %"class.llvm::function_ref", align 8
  %5 = alloca ptr, align 8
  %6 = alloca %"class.llvm::StringRef", align 8
  %7 = alloca %"class.clang::SourceLocation", align 4
  %8 = alloca %"class.llvm::StringRef", align 8
  %9 = alloca %"class.clang::SourceLocation", align 4
  %10 = alloca %"class.llvm::StringRef", align 8
  %11 = alloca %"class.clang::SourceLocation", align 4
  %12 = alloca %"class.llvm::StringRef", align 8
  %13 = alloca %"class.clang::SourceLocation", align 4
  %14 = getelementptr inbounds nuw { ptr, i64 }, ptr %4, i32 0, i32 0
  store ptr %1, ptr %14, align 8
  %15 = getelementptr inbounds nuw { ptr, i64 }, ptr %4, i32 0, i32 1
  store i64 %2, ptr %15, align 8
  store ptr %0, ptr %5, align 8
  %16 = load ptr, ptr %5, align 8
  %17 = load i64, ptr %16, align 8
  %18 = lshr i64 %17, 26
  %19 = and i64 %18, 31
  %20 = trunc i64 %19 to i32
  %21 = and i32 %20, 1
  %22 = icmp ne i32 %21, 0
  br i1 %22, label %23, label %31

23:                                               ; preds = %3
  call void @_ZN4llvm9StringRefC2EPKc(ptr noundef nonnull align 8 dereferenceable(16) %6, ptr noundef @.str)
  %24 = getelementptr inbounds nuw %"class.clang::DeclSpec", ptr %16, i32 0, i32 18
  call void @llvm.memcpy.p0.p0.i64(ptr align 4 %7, ptr align 4 %24, i64 4, i1 false)
  %25 = getelementptr inbounds nuw { ptr, i64 }, ptr %6, i32 0, i32 0
  %26 = load ptr, ptr %25, align 8
  %27 = getelementptr inbounds nuw { ptr, i64 }, ptr %6, i32 0, i32 1
  %28 = load i64, ptr %27, align 8
  %29 = getelementptr inbounds nuw %"class.clang::SourceLocation", ptr %7, i32 0, i32 0
  %30 = load i32, ptr %29, align 4
  call void @_ZNK4llvm12function_refIFvN5clang8DeclSpec2TQENS_9StringRefENS1_14SourceLocationEEEclES3_S4_S5_(ptr noundef nonnull align 8 dereferenceable(16) %4, i32 noundef 1, ptr %26, i64 %28, i32 %30)
  br label %31

31:                                               ; preds = %23, %3
  %32 = load i64, ptr %16, align 8
  %33 = lshr i64 %32, 26
  %34 = and i64 %33, 31
  %35 = trunc i64 %34 to i32
  %36 = and i32 %35, 4
  %37 = icmp ne i32 %36, 0
  br i1 %37, label %38, label %46

38:                                               ; preds = %31
  call void @_ZN4llvm9StringRefC2EPKc(ptr noundef nonnull align 8 dereferenceable(16) %8, ptr noundef @.str.1)
  %39 = getelementptr inbounds nuw %"class.clang::DeclSpec", ptr %16, i32 0, i32 20
  call void @llvm.memcpy.p0.p0.i64(ptr align 4 %9, ptr align 4 %39, i64 4, i1 false)
  %40 = getelementptr inbounds nuw { ptr, i64 }, ptr %8, i32 0, i32 0
  %41 = load ptr, ptr %40, align 8
  %42 = getelementptr inbounds nuw { ptr, i64 }, ptr %8, i32 0, i32 1
  %43 = load i64, ptr %42, align 8
  %44 = getelementptr inbounds nuw %"class.clang::SourceLocation", ptr %9, i32 0, i32 0
  %45 = load i32, ptr %44, align 4
  call void @_ZNK4llvm12function_refIFvN5clang8DeclSpec2TQENS_9StringRefENS1_14SourceLocationEEEclES3_S4_S5_(ptr noundef nonnull align 8 dereferenceable(16) %4, i32 noundef 4, ptr %41, i64 %43, i32 %45)
  br label %46

46:                                               ; preds = %38, %31
  %47 = load i64, ptr %16, align 8
  %48 = lshr i64 %47, 26
  %49 = and i64 %48, 31
  %50 = trunc i64 %49 to i32
  %51 = and i32 %50, 2
  %52 = icmp ne i32 %51, 0
  br i1 %52, label %53, label %61

53:                                               ; preds = %46
  call void @_ZN4llvm9StringRefC2EPKc(ptr noundef nonnull align 8 dereferenceable(16) %10, ptr noundef @.str.2)
  %54 = getelementptr inbounds nuw %"class.clang::DeclSpec", ptr %16, i32 0, i32 19
  call void @llvm.memcpy.p0.p0.i64(ptr align 4 %11, ptr align 8 %54, i64 4, i1 false)
  %55 = getelementptr inbounds nuw { ptr, i64 }, ptr %10, i32 0, i32 0
  %56 = load ptr, ptr %55, align 8
  %57 = getelementptr inbounds nuw { ptr, i64 }, ptr %10, i32 0, i32 1
  %58 = load i64, ptr %57, align 8
  %59 = getelementptr inbounds nuw %"class.clang::SourceLocation", ptr %11, i32 0, i32 0
  %60 = load i32, ptr %59, align 4
  call void @_ZNK4llvm12function_refIFvN5clang8DeclSpec2TQENS_9StringRefENS1_14SourceLocationEEEclES3_S4_S5_(ptr noundef nonnull align 8 dereferenceable(16) %4, i32 noundef 2, ptr %56, i64 %58, i32 %60)
  br label %61

61:                                               ; preds = %53, %46
  %62 = load i64, ptr %16, align 8
  %63 = lshr i64 %62, 26
  %64 = and i64 %63, 31
  %65 = trunc i64 %64 to i32
  %66 = and i32 %65, 8
  %67 = icmp ne i32 %66, 0
  br i1 %67, label %68, label %76

68:                                               ; preds = %61
  call void @_ZN4llvm9StringRefC2EPKc(ptr noundef nonnull align 8 dereferenceable(16) %12, ptr noundef @.str.3)
  %69 = getelementptr inbounds nuw %"class.clang::DeclSpec", ptr %16, i32 0, i32 22
  call void @llvm.memcpy.p0.p0.i64(ptr align 4 %13, ptr align 4 %69, i64 4, i1 false)
  %70 = getelementptr inbounds nuw { ptr, i64 }, ptr %12, i32 0, i32 0
  %71 = load ptr, ptr %70, align 8
  %72 = getelementptr inbounds nuw { ptr, i64 }, ptr %12, i32 0, i32 1
  %73 = load i64, ptr %72, align 8
  %74 = getelementptr inbounds nuw %"class.clang::SourceLocation", ptr %13, i32 0, i32 0
  %75 = load i32, ptr %74, align 4
  call void @_ZNK4llvm12function_refIFvN5clang8DeclSpec2TQENS_9StringRefENS1_14SourceLocationEEEclES3_S4_S5_(ptr noundef nonnull align 8 dereferenceable(16) %4, i32 noundef 8, ptr %71, i64 %73, i32 %75)
  br label %76

76:                                               ; preds = %68, %61
  ret void
}