; Function Attrs: mustprogress nounwind uwtable
define dso_local void @_ZN5clang8DeclSpec20forEachCVRUQualifierEN4llvm12function_refIFvNS0_2TQENS1_9StringRefENS_14SourceLocationEEEE(ptr nocapture noundef nonnull readonly align 8 dereferenceable(360) %0, ptr nocapture readonly %1, i64 %2) local_unnamed_addr #2 align 2 {
  %4 = load i64, ptr %0, align 8
  %5 = and i64 %4, 67108864
  %.not = icmp eq i64 %5, 0
  br i1 %.not, label %8, label %6

6:                                                ; preds = %3
  %7 = getelementptr inbounds nuw i8, ptr %0, i64 284
  %.sroa.03.0.copyload = load i32, ptr %7, align 4
  tail call void %1(i64 noundef %2, i32 noundef 1, ptr nonnull @.str, i64 5, i32 %.sroa.03.0.copyload) #21
  %.pre = load i64, ptr %0, align 8
  br label %8

8:                                                ; preds = %6, %3
  %9 = phi i64 [ %.pre, %6 ], [ %4, %3 ]
  %10 = and i64 %9, 268435456
  %.not4 = icmp eq i64 %10, 0
  br i1 %.not4, label %13, label %11

11:                                               ; preds = %8
  %12 = getelementptr inbounds nuw i8, ptr %0, i64 292
  %.sroa.02.0.copyload = load i32, ptr %12, align 4
  tail call void %1(i64 noundef %2, i32 noundef 4, ptr nonnull @.str.1, i64 8, i32 %.sroa.02.0.copyload) #21
  %.pre20 = load i64, ptr %0, align 8
  br label %13

13:                                               ; preds = %11, %8
  %14 = phi i64 [ %.pre20, %11 ], [ %9, %8 ]
  %15 = and i64 %14, 134217728
  %.not5 = icmp eq i64 %15, 0
  br i1 %.not5, label %18, label %16

16:                                               ; preds = %13
  %17 = getelementptr inbounds nuw i8, ptr %0, i64 288
  %.sroa.01.0.copyload = load i32, ptr %17, align 8
  tail call void %1(i64 noundef %2, i32 noundef 2, ptr nonnull @.str.2, i64 8, i32 %.sroa.01.0.copyload) #21
  %.pre21 = load i64, ptr %0, align 8
  br label %18

18:                                               ; preds = %16, %13
  %19 = phi i64 [ %.pre21, %16 ], [ %14, %13 ]
  %20 = and i64 %19, 536870912
  %.not6 = icmp eq i64 %20, 0
  br i1 %.not6, label %23, label %21

21:                                               ; preds = %18
  %22 = getelementptr inbounds nuw i8, ptr %0, i64 300
  %.sroa.0.0.copyload = load i32, ptr %22, align 4
  tail call void %1(i64 noundef %2, i32 noundef 8, ptr nonnull @.str.3, i64 9, i32 %.sroa.0.0.copyload) #21
  br label %23

23:                                               ; preds = %21, %18
  ret void
}